; Function Attrs: nounwind uwtable
define i32 @exr_set_data_window(ptr noundef %0, i32 noundef %1, ptr noundef readonly %2) local_unnamed_addr #0 {
  %.not = icmp eq ptr %2, null
  br i1 %.not, label %4, label %8

4:                                                ; preds = %3
  %5 = getelementptr inbounds nuw i8, ptr %0, i64 64
  %6 = load ptr, ptr %5, align 8, !tbaa !38
  %7 = tail call i32 %6(ptr noundef %0, i32 noundef 3, ptr noundef nonnull @.str.8) #6
  br label %63

8:                                                ; preds = %3
  %.not48 = icmp eq ptr %0, null
  br i1 %.not48, label %63, label %9

9:                                                ; preds = %8
  %10 = getelementptr inbounds nuw i8, ptr %0, i64 504
  %11 = tail call i32 @pthread_mutex_lock(ptr noundef nonnull %10) #6
  %12 = icmp slt i32 %1, 0
  br i1 %12, label %16, label %13

13:                                               ; preds = %9
  %14 = getelementptr inbounds nuw i8, ptr %0, i64 196
  %15 = load i32, ptr %14, align 4, !tbaa !22
  %.not49 = icmp slt i32 %1, %15
  br i1 %.not49, label %21, label %16

16:                                               ; preds = %13, %9
  %17 = tail call i32 @pthread_mutex_unlock(ptr noundef nonnull %10) #6
  %18 = getelementptr inbounds nuw i8, ptr %0, i64 72
  %19 = load ptr, ptr %18, align 8, !tbaa !23
  %20 = tail call i32 (ptr, i32, ptr, ...) %19(ptr noundef nonnull %0, i32 noundef 4, ptr noundef nonnull @.str, i32 noundef %1) #6
  br label %63

21:                                               ; preds = %13
  %22 = getelementptr inbounds nuw i8, ptr %0, i64 472
  %23 = load ptr, ptr %22, align 8, !tbaa !24
  %24 = zext nneg i32 %1 to i64
  %25 = getelementptr inbounds nuw ptr, ptr %23, i64 %24
  %26 = load ptr, ptr %25, align 8, !tbaa !25
  %27 = load i8, ptr %0, align 8, !tbaa !3
  switch i8 %27, label %38 [
    i8 0, label %28
    i8 3, label %33
  ]

28:                                               ; preds = %21
  %29 = tail call i32 @pthread_mutex_unlock(ptr noundef nonnull %10) #6
  %30 = getelementptr inbounds nuw i8, ptr %0, i64 56
  %31 = load ptr, ptr %30, align 8, !tbaa !27
  %32 = tail call i32 %31(ptr noundef nonnull %0, i32 noundef 8) #6
  br label %63

33:                                               ; preds = %21
  %34 = tail call i32 @pthread_mutex_unlock(ptr noundef nonnull %10) #6
  %35 = getelementptr inbounds nuw i8, ptr %0, i64 56
  %36 = load ptr, ptr %35, align 8, !tbaa !27
  %37 = tail call i32 %36(ptr noundef nonnull %0, i32 noundef 21) #6
  br label %63

38:                                               ; preds = %21
  %39 = getelementptr inbounds nuw i8, ptr %26, i64 48
  %40 = load ptr, ptr %39, align 8, !tbaa !39
  %.not50 = icmp eq ptr %40, null
  br i1 %.not50, label %52, label %41

41:                                               ; preds = %38
  %42 = getelementptr inbounds nuw i8, ptr %40, i64 20
  %43 = load i32, ptr %42, align 4, !tbaa !32
  %.not51 = icmp eq i32 %43, 1
  br i1 %.not51, label %.thread, label %44

44:                                               ; preds = %41
  %45 = tail call i32 @pthread_mutex_unlock(ptr noundef nonnull %10) #6
  %46 = getelementptr inbounds nuw i8, ptr %0, i64 72
  %47 = load ptr, ptr %46, align 8, !tbaa !23
  %48 = load ptr, ptr %39, align 8, !tbaa !39
  %49 = getelementptr inbounds nuw i8, ptr %48, i64 8
  %50 = load ptr, ptr %49, align 8, !tbaa !34
  %51 = tail call i32 (ptr, i32, ptr, ...) %47(ptr noundef nonnull %0, i32 noundef 6, ptr noundef nonnull @.str.4, ptr noundef %50, ptr noundef nonnull @.str.7) #6
  br label %63

52:                                               ; preds = %38
  %53 = getelementptr inbounds nuw i8, ptr %26, i64 8
  %54 = tail call i32 @exr_attr_list_add(ptr noundef nonnull %0, ptr noundef nonnull %53, ptr noundef nonnull @.str.7, i32 noundef 1, i32 noundef 0, ptr noundef null, ptr noundef nonnull %39) #6
  %55 = icmp eq i32 %54, 0
  br i1 %55, label %..thread_crit_edge, label %61

..thread_crit_edge:                               ; preds = %52
  %.pre = load ptr, ptr %39, align 8, !tbaa !39
  br label %.thread

.thread:                                          ; preds = %..thread_crit_edge, %41
  %56 = phi ptr [ %.pre, %..thread_crit_edge ], [ %40, %41 ]
  %57 = getelementptr inbounds nuw i8, ptr %56, i64 24
  %58 = load ptr, ptr %57, align 8, !tbaa !35
  tail call void @llvm.memcpy.p0.p0.i64(ptr noundef nonnull align 1 dereferenceable(16) %58, ptr noundef nonnull align 1 dereferenceable(16) %2, i64 16, i1 false), !tbaa.struct !40
  %59 = getelementptr inbounds nuw i8, ptr %26, i64 144
  tail call void @llvm.memcpy.p0.p0.i64(ptr noundef nonnull align 8 dereferenceable(16) %59, ptr noundef nonnull align 1 dereferenceable(16) %2, i64 16, i1 false), !tbaa.struct !40
  %60 = tail call i32 @internal_exr_compute_tile_information(ptr noundef nonnull %0, ptr noundef nonnull %26, i32 noundef 1) #6
  br label %61

61:                                               ; preds = %.thread, %52
  %.142 = phi i32 [ %60, %.thread ], [ %54, %52 ]
  %62 = tail call i32 @pthread_mutex_unlock(ptr noundef nonnull %10) #6
  br label %63

63:                                               ; preds = %16, %28, %33, %44, %61, %8, %4
  %.0 = phi i32 [ %7, %4 ], [ %20, %16 ], [ %32, %28 ], [ %37, %33 ], [ %51, %44 ], [ %.142, %61 ], [ 2, %8 ]
  ret i32 %.0
}